
 Start  Stop   Length Name               Class

 00000H 05FC3H 05FC4H CRACK_PWDZIPFILE   CODE
 05FD0H 06113H 00144H Dos                CODE
 06120H 0733CH 0121DH System             CODE
 07340H 0DECBH 06B8CH DATA               DATA
 0DED0H 15ECFH 08000H STACK              STACK
 15ED0H 15ED0H 00000H HEAP               HEAP

  Address         Publics by Value

 0000:0000       _DummyProc
 0000:0401       _InitCRC32Table
 0000:0428       _UpdateKeys
 0000:0475       _PreCalcKeys
 0000:0597       _fnbCpuIs386
 0000:05AC       _fndbHexCharToBin
 0000:05C0       _fnliHexStrToBin
 0000:068A       _fnsByteToHexFmt
 0000:06D6       _fnsWordToHexFmt
 0000:0709       _fnsDoubleWordToHexFmt
 0000:0755       _fnsAddDefExt
 0000:07F1       _fnsUpcaseStr
 0000:086E       _fnchGetFirstChar
 0000:08AD       _fndbGetValue
 0000:0980       _fnsRunTime
 0000:0A54       _CopyrightDisplay
 0000:0A74       _liTotalSecTens
 0000:0B16       _ConvertToTime
 0000:0BD9       _CalcActualTime
 0000:0C1D       _AddTimeCount
 0000:0CD1       _AllocDosMem
 0000:0DD1       _DeAllocDosMem
 0000:252A       @
 05FD:0000       GetDate
 05FD:0022       SetDate
 05FD:0036       GetTime
 05FD:005B       SetTime
 05FD:0072       Exec
 05FD:0106       DosExitCode
 05FD:010B       SwapVectors
 0734:0002       gasZipFileName
 0734:0054       gasPwdFileName
 0734:00A6       gasTableFileName
 0734:00F8       gasEncryptedFileName
 0734:014A       gasFoundPwdFileName
 0734:019C       gasRunPkunzipCommand
 0734:01A2       gasTestBatchFileName
 0734:01F4       gasTruePassword
 0734:0246       gasPkUnzipPath
 0734:0298       gasStatFileName
 0734:02E9       gadbMinPswdLen
 0734:02EA       gadbMaxPswdLen
 0734:02EB       gadbLastCharIndex
 0734:02EC       setHexChars
 0734:030C       setDisplayCodesOfASCII
 0734:032C       gbCodesInUseTable
 0734:042C       gabCpuIs386
 0734:042D       gabUseFileToWritePwd
 0734:042E       gabBatchModeOn
 0734:042F       gabKeyPressed
 0734:0430       gabDisplayOn
 0734:0431       gadbUserBreakOn
 0734:0432       gliFoundPwdCount
 0734:0436       gabInitCRCTable
 0734:0437       gabFoundPwdStatisticsON
 0734:0438       gliSearchPwdCount
 0734:043C       gabDoTestBatchFile
 0734:043D       gabAutoSearchTruePwdON
 0734:043E       gadbDefaultPkUnzipInUse
 0734:0450       OvrCodeList
 0734:0452       OvrHeapSize
 0734:0454       OvrDebugPtr
 0734:0458       OvrHeapOrg
 0734:045A       OvrHeapPtr
 0734:045C       OvrHeapEnd
 0734:045E       OvrLoadList
 0734:0460       OvrDosHandle
 0734:0462       OvrEmsHandle
 0734:0464       HeapOrg
 0734:0468       HeapPtr
 0734:046C       HeapEnd
 0734:0470       FreeList
 0734:0474       FreeZero
 0734:0478       HeapError
 0734:047C       ExitProc
 0734:0480       ExitCode
 0734:0482       ErrorAddr
 0734:0486       PrefixSeg
 0734:0488       StackLimit
 0734:048A       InOutRes
 0734:048C       RandSeed
 0734:0490       SelectorInc
 0734:0492       Seg0040
 0734:0494       SegA000
 0734:0496       SegB000
 0734:0498       SegB800
 0734:049A       Test8086
 0734:049B       Test8087
 0734:049C       FileMode
 0734:04A0       gdbKeysForOneSymPswd
 0734:10A0       gdbLastPasswordKeys
 0734:1460       gdbSearchPassword
 0734:1550       gdbSearchPwdOfsTable
 0734:15F0       gdbLastPwdKeysOfsTabl
 0734:1690       gdbOneSymKeysOfsTabl
 0734:1890       gfZipInStream
 0734:1910       gfUserPwdInStream
 0734:1990       gfUserTableInStream
 0734:1A10       gfFoundPwdOutStream
 0734:1B10       gfStatOutStream
 0734:1C10       gfBatchOutStream
 0734:1D10       grecNulDeviceDesc
 0734:1D10       gfNulDeviceStream
 0734:1D90       gdbLocFileHeader
 0734:1DAE       gdbRandomValues
 0734:1DBA       gdbTempRandomBuffer
 0734:1DC6       gsDosParmLine
 0734:1EC6       gsTempInput
 0734:1FC6       gsSavePwd
 0734:20C6       grecEarlyTime
 0734:20CE       grecInitTime
 0734:20D6       grecLastTime
 0734:20DE       grecWorkTime
 0734:20E6       grecStartTime
 0734:20EE       grecTrueTime
 0734:20F6       gliFileOfs
 0734:20FA       gddFileCRC32
 0734:20FE       gliTempVal
 0734:2102       gdwCodeCRCTableSeg
 0734:2104       gddKeyZero
 0734:2108       gddKeyOne
 0734:210C       gddKeyTwo
 0734:2110       gdwKeyZeroSeg
 0734:2112       gdwKeyOneSeg
 0734:2114       gdwKeyTwoSeg
 0734:2116       gdwKeyZeroSegSym2
 0734:2118       gdwKeyOneSegSym2
 0734:211A       gdwKeyTwoSegSym2
 0734:211C       gdwByteCount
 0734:211E       gdwFileCount
 0734:2120       gdwMemOfs
 0734:2122       gdwResCount
 0734:2124       gdwParamNum
 0734:2126       gdwProcessCode
 0734:2128       giErrorCode
 0734:212A       gdwSaveRegBP
 0734:212C       gdwTempCount
 0734:212E       gdwTemp
 0734:2130       gdwNulDevHandle
 0734:2132       gdwConDevHandle
 0734:2134       gdbIndex
 0734:2135       gdbSymIndex
 0734:2136       gdbTemp
 0734:2137       gchTemp
 0734:2138       gbStatusOk
 0734:213A       gdbLargeFoundPwdBuf
 0734:293A       gdbLargeStatPwdBuf
 0734:693A       DosError
 0734:6940       Input
 0734:6A40       Output
 0734:6B40       SaveInt00
 0734:6B44       SaveInt02
 0734:6B48       SaveInt1B
 0734:6B4C       SaveInt21
 0734:6B50       SaveInt23
 0734:6B54       SaveInt24
 0734:6B58       SaveInt34
 0734:6B5C       SaveInt35
 0734:6B60       SaveInt36
 0734:6B64       SaveInt37
 0734:6B68       SaveInt38
 0734:6B6C       SaveInt39
 0734:6B70       SaveInt3A
 0734:6B74       SaveInt3B
 0734:6B78       SaveInt3C
 0734:6B7C       SaveInt3D
 0734:6B80       SaveInt3E
 0734:6B84       SaveInt3F
 0734:6B88       SaveInt75

Line numbers for CRACK_PWDZIPFILE(PWDZIP.PAS) segment CRACK_PWDZIPFILE

   589 0000:0000   590 0000:0008   591 0000:0010   592 0000:0018
   593 0000:0020   594 0000:0028   595 0000:0030   596 0000:0038
   597 0000:0040   598 0000:0048   599 0000:0050   600 0000:0058
   601 0000:0060   602 0000:0068   603 0000:0070   604 0000:0078
   605 0000:0080   606 0000:0088   607 0000:0090   608 0000:0098
   609 0000:00A0   610 0000:00A8   611 0000:00B0   612 0000:00B8
   613 0000:00C0   614 0000:00C8   615 0000:00D0   616 0000:00D8
   617 0000:00E0   618 0000:00E8   619 0000:00F0   620 0000:00F8
   621 0000:0100   622 0000:0108   623 0000:0110   624 0000:0118
   625 0000:0120   626 0000:0128   627 0000:0130   628 0000:0138
   629 0000:0140   630 0000:0148   631 0000:0150   632 0000:0158
   633 0000:0160   634 0000:0168   635 0000:0170   636 0000:0178
   637 0000:0180   638 0000:0188   639 0000:0190   640 0000:0198
   641 0000:01A0   642 0000:01A8   643 0000:01B0   644 0000:01B8
   645 0000:01C0   646 0000:01C8   647 0000:01D0   648 0000:01D8
   649 0000:01E0   650 0000:01E8   651 0000:01F0   652 0000:01F8
   653 0000:0200   654 0000:0208   655 0000:0210   656 0000:0218
   657 0000:0220   658 0000:0228   659 0000:0230   660 0000:0238
   661 0000:0240   662 0000:0248   663 0000:0250   664 0000:0258
   665 0000:0260   666 0000:0268   667 0000:0270   668 0000:0278
   669 0000:0280   670 0000:0288   671 0000:0290   672 0000:0298
   673 0000:02A0   674 0000:02A8   675 0000:02B0   676 0000:02B8
   677 0000:02C0   678 0000:02C8   679 0000:02D0   680 0000:02D8
   681 0000:02E0   682 0000:02E8   683 0000:02F0   684 0000:02F8
   685 0000:0300   686 0000:0308   687 0000:0310   688 0000:0318
   689 0000:0320   690 0000:0328   691 0000:0330   692 0000:0338
   693 0000:0340   694 0000:0348   695 0000:0350   696 0000:0358
   697 0000:0360   698 0000:0368   699 0000:0370   700 0000:0378
   701 0000:0380   702 0000:0388   703 0000:0390   704 0000:0398
   705 0000:03A0   706 0000:03A8   707 0000:03B0   708 0000:03B8
   709 0000:03C0   710 0000:03C8   711 0000:03D0   712 0000:03D8
   713 0000:03E0   714 0000:03E8   715 0000:03F0   716 0000:03F8
   717 0000:0400   735 0000:0401   736 0000:0402   737 0000:0404
   738 0000:0406   739 0000:0409   741 0000:040C   742 0000:040F
   743 0000:0410   745 0000:0414   746 0000:0417   747 0000:0419
   749 0000:041F   750 0000:0421   751 0000:0423   752 0000:0424
   753 0000:0425   754 0000:0427   779 0000:0428   780 0000:042B
   781 0000:042F   782 0000:0431   783 0000:0433   784 0000:0436
   785 0000:0437   786 0000:0438   787 0000:043B   788 0000:043D
   789 0000:0441   790 0000:0447   791 0000:0449   792 0000:044B
   793 0000:044E   794 0000:0451   795 0000:0458   796 0000:045A
   797 0000:045C   798 0000:0460   799 0000:0463   800 0000:0465
   801 0000:0469   802 0000:046F   803 0000:0472   804 0000:0473
   876 0000:0474   887 0000:0475   891 0000:0476   892 0000:0478
   894 0000:0479   895 0000:047B   900 0000:047D   901 0000:047F
   902 0000:0483   903 0000:0485   918 0000:0489   919 0000:048B
   920 0000:048E   921 0000:0490   923 0000:0492   924 0000:0495
   925 0000:0497   932 0000:049A   933 0000:049C   934 0000:049F
   936 0000:04A1   940 0000:04A4   944 0000:04A6   945 0000:04A9
   946 0000:04AB   951 0000:04AE   952 0000:04B0   954 0000:04B2
   957 0000:04B5   958 0000:04B7   961 0000:04BA   963 0000:04BE
   964 0000:04C0   965 0000:04C3   968 0000:04C5   969 0000:04C8
   970 0000:04CA   971 0000:04CC   973 0000:04CE   978 0000:04D1
   980 0000:04D3   981 0000:04D7   986 0000:04D9   987 0000:04DD
   988 0000:04DF   996 0000:04E1   997 0000:04E4  1002 0000:04E6
  1003 0000:04EA  1004 0000:04EC  1012 0000:04EE  1013 0000:04F1
  1018 0000:04F3  1019 0000:04F7  1020 0000:04F9  1027 0000:04FB
  1030 0000:04FD  1031 0000:04FF  1032 0000:0501  1034 0000:0503
  1039 0000:0506  1041 0000:0508  1042 0000:050C  1047 0000:050E
  1048 0000:0512  1049 0000:0514  1057 0000:0516  1058 0000:0519
  1063 0000:051B  1064 0000:051F  1065 0000:0521  1073 0000:0523
  1074 0000:0526  1079 0000:0528  1080 0000:052C  1081 0000:052E
  1153 0000:0530  1154 0000:0533  1155 0000:0536  1156 0000:0538
  1158 0000:053A  1159 0000:053D  1169 0000:0540  1170 0000:0542
  1171 0000:0545  1172 0000:0547  1175 0000:0549  1176 0000:054B
  1179 0000:054D  1180 0000:054F  1181 0000:0551  1182 0000:0553
  1203 0000:0557  1204 0000:055A  1205 0000:055C  1207 0000:055E
  1208 0000:0561  1213 0000:0564  1214 0000:0566  1218 0000:0567
  1224 0000:0568  1225 0000:056A  1226 0000:056C  1227 0000:056E
  1231 0000:0570  1232 0000:0572  1233 0000:0574  1234 0000:0576
  1235 0000:057A  1244 0000:057C  1245 0000:057E  1248 0000:0581
  1253 0000:0582  1254 0000:0585  1255 0000:0587  1257 0000:0589
  1258 0000:058C  1265 0000:058F  1270 0000:0590  1271 0000:0592
  1276 0000:0594  1282 0000:0595  1286 0000:0596  1380 0000:0597
  1381 0000:0599  1382 0000:059A  1383 0000:059D  1384 0000:059E
  1385 0000:059F  1386 0000:05A0  1387 0000:05A1  1388 0000:05A4
  1389 0000:05A6  1391 0000:05A8  1392 0000:05A9  1393 0000:05AB
  1400 0000:05AC  1401 0000:05AF  1402 0000:05B2  1404 0000:05B4
  1405 0000:05B6  1407 0000:05B8  1408 0000:05BA  1412 0000:05BC
  1422 0000:05C0  1423 0000:05DB  1424 0000:05E3  1425 0000:05ED
  1426 0000:05F2  1428 0000:05FA  1430 0000:060A  1432 0000:0628
  1433 0000:065E  1434 0000:0662  1435 0000:0666  1437 0000:0668
  1438 0000:0670  1440 0000:0672  1441 0000:0680  1449 0000:068A
  1450 0000:068E  1451 0000:06D2  1456 0000:06D6  1457 0000:06DA
  1459 0000:0705  1464 0000:0709  1465 0000:070D  1467 0000:074F
  1475 0000:0755  1476 0000:077E  1477 0000:0792  1478 0000:07A6
  1480 0000:07DA  1481 0000:07ED  1491 0000:07F1  1492 0000:080C
  1493 0000:0813  1494 0000:082D  1497 0000:0857  1498 0000:086A
  1506 0000:086E  1507 0000:0889  1508 0000:0890  1509 0000:0897
  1511 0000:089F  1512 0000:08A6  1521 0000:08AD  1522 0000:08C8
  1523 0000:08CF  1524 0000:08E5  1526 0000:090C  1527 0000:0913
  1540 0000:091C  1541 0000:0920  1542 0000:0935  1543 0000:093B
  1545 0000:093F  1546 0000:0945  1548 0000:096B  1549 0000:097C
  1552 0000:0980  1555 0000:0998  1561 0000:09F1  1562 0000:0A04
  1571 0000:0A54  1572 0000:0A57  1578 0000:0A72  1586 0000:0A74
  1590 0000:0A8C  1591 0000:0A97  1592 0000:0ABA  1593 0000:0ADD
  1596 0000:0B00  1597 0000:0B0C  1603 0000:0B16  1604 0000:0B1A
  1606 0000:0B23  1607 0000:0B3A  1608 0000:0B5E  1609 0000:0B75
  1610 0000:0B99  1611 0000:0BB0  1614 0000:0BD5  1625 0000:0BD9
  1626 0000:0BDD  1627 0000:0BEB  1628 0000:0BF9  1629 0000:0C0B
  1630 0000:0C19  1640 0000:0C1D  1641 0000:0C21  1642 0000:0C2F
  1644 0000:0C3D  1645 0000:0C4F  1646 0000:0C5D  1655 0000:0CD1
  1656 0000:0CD5  1658 0000:0CD9  1659 0000:0CDC  1660 0000:0CDE
  1661 0000:0CE0  1663 0000:0CE2  1664 0000:0CE6  1665 0000:0CE9
  1671 0000:0CEC  1673 0000:0CF2  1674 0000:0D25  1675 0000:0D2D
  1678 0000:0D30  1686 0000:0DAF  1692 0000:0DD1  1694 0000:0DD5
  1695 0000:0DD8  1696 0000:0DDA  1700 0000:0DDC  1703 0000:0E13
  1709 0000:252A  1712 0000:2533  1715 0000:2536  1716 0000:253E
  1718 0000:2548  1719 0000:2563  1720 0000:257E  1721 0000:2599
  1722 0000:25B4  1723 0000:25CF  1724 0000:25EA  1725 0000:2605
  1726 0000:2634  1727 0000:2663  1728 0000:267E  1729 0000:2699
  1730 0000:26B4  1735 0000:26BC  1737 0000:26C2  1740 0000:26C8
  1741 0000:26CF  1742 0000:26E3  1744 0000:26F5  1749 0000:2725
  1750 0000:272C  1756 0000:272F  1760 0000:2736  1761 0000:2738
  1762 0000:273B  1770 0000:273E  1771 0000:2749  1773 0000:275C
  1774 0000:2760  1775 0000:2765  1776 0000:276A  1781 0000:2771
  1783 0000:277C  1785 0000:279E  1787 0000:27BD  1789 0000:27C4
  1791 0000:27CF  1793 0000:27ED  1798 0000:27F4  1800 0000:27FB
  1802 0000:2816  1803 0000:2831  1805 0000:2833  1807 0000:284C
  1809 0000:2853  1810 0000:286E  1811 0000:2876  1813 0000:2878
  1815 0000:2897  1817 0000:28B1  1822 0000:28E1  1824 0000:28E8
  1825 0000:2903  1826 0000:291E  1828 0000:2920  1830 0000:2939
  1832 0000:2940  1833 0000:295B  1834 0000:2963  1836 0000:2965
  1838 0000:2984  1840 0000:299E  1845 0000:29CE  1846 0000:29D3
  1847 0000:29D8  1848 0000:29E0  1849 0000:29EF  1850 0000:29FB
  1852 0000:2A04  1853 0000:2A1F  1856 0000:2A27  1859 0000:2A42
  1860 0000:2A48  1861 0000:2A65  1863 0000:2A6E  1864 0000:2A89
  1871 0000:2A91  1873 0000:2AA1  1875 0000:2AA8  1876 0000:2AC3
  1877 0000:2ACB  1879 0000:2ACD  1880 0000:2AE8  1888 0000:2AF0
  1889 0000:2AF6  1890 0000:2B13  1892 0000:2B1C  1893 0000:2B37
  1896 0000:2B3F  1897 0000:2B45  1898 0000:2B58  1900 0000:2B7F
  1901 0000:2B95  1904 0000:2B99  1908 0000:2BC9  1911 0000:2BDA
  1912 0000:2BF6  1913 0000:2C0D  1916 0000:2C10  1918 0000:2C1A
  1919 0000:2C35  1923 0000:2C3D  1924 0000:2C51  1925 0000:2C68
  1926 0000:2C6E  1927 0000:2C8B  1929 0000:2C94  1930 0000:2CAF
  1933 0000:2CB7  1934 0000:2CC5  1937 0000:2CCA  1938 0000:2CE5
  1939 0000:2CF0  1941 0000:2D37  1948 0000:2D46  1949 0000:2D50
  1954 0000:2D5F  1956 0000:2D66  1958 0000:2D81  1959 0000:2D9C
  1961 0000:2D9E  1963 0000:2DB7  1965 0000:2DBE  1967 0000:2DDB
  1969 0000:2DFA  1971 0000:2E14  1976 0000:2E44  1978 0000:2E4E
  1979 0000:2E69  1980 0000:2E78  1981 0000:2E85  1983 0000:2E8E
  1984 0000:2EA9  1987 0000:2EB1  1988 0000:2EC7  1990 0000:2ECE
  1991 0000:2EE9  1994 0000:2EF1  2000 0000:2F00  2002 0000:2F07
  2004 0000:2F22  2005 0000:2F3D  2007 0000:2F3F  2009 0000:2F58
  2011 0000:2F5F  2013 0000:2F7C  2015 0000:2F9B  2017 0000:2FB5
  2022 0000:2FE5  2024 0000:2FEF  2025 0000:300A  2026 0000:3019
  2027 0000:3025  2029 0000:302E  2030 0000:3049  2033 0000:3051
  2034 0000:3067  2035 0000:307F  2037 0000:3088  2038 0000:30A3
  2041 0000:30AB  2047 0000:30BA  2049 0000:30C1  2051 0000:30F8
  2052 0000:3114  2054 0000:3116  2056 0000:3130  2058 0000:3137
  2059 0000:3149  2060 0000:3150  2065 0000:3156  2070 0000:3181
  2072 0000:3188  2074 0000:31BF  2075 0000:31DB  2077 0000:31DD
  2079 0000:31F7  2081 0000:31FE  2082 0000:3210  2083 0000:3220
  2088 0000:3226  2093 0000:3251  2095 0000:3258  2096 0000:3273
  2097 0000:328F  2099 0000:3291  2101 0000:32AB  2104 0000:32CA
  2105 0000:32E3  2107 0000:32FC  2109 0000:3327  2110 0000:336E
  2111 0000:338A  2112 0000:3391  2115 0000:339F  2116 0000:33E7
  2117 0000:3403  2118 0000:340A  2121 0000:3419  2122 0000:3461
  2123 0000:347D  2124 0000:3484  2127 0000:3493  2128 0000:34A0
  2130 0000:34A8  2193 0000:34B3  2194 0000:34CE  2195 0000:34E9
  2196 0000:3502  2197 0000:351B  2207 0000:35E3  2209 0000:35EA
  2210 0000:3605  2211 0000:3621  2213 0000:3623  2215 0000:363D
  2217 0000:3656  2219 0000:365B  2221 0000:3676  2224 0000:3678
  2231 0000:3693  2233 0000:369A  2235 0000:36B5  2236 0000:36D0
  2238 0000:36D2  2240 0000:36EB  2242 0000:36F2  2244 0000:370F
  2245 0000:372E  2247 0000:3748  2255 0000:3778  2257 0000:3782
  2258 0000:379D  2259 0000:37AC  2260 0000:37C3  2261 0000:37CD
  2263 0000:37D6  2264 0000:37F1  2265 0000:37F9  2267 0000:37FB
  2275 0000:3800  2276 0000:381B  2277 0000:3837  2279 0000:3850
  2281 0000:3855  2283 0000:3870  2286 0000:3872  2290 0000:388D
  2292 0000:3897  2294 0000:38B2  2295 0000:38CD  2297 0000:38D4
  2298 0000:38D9  2299 0000:38F4  2301 0000:38F6  2302 0000:3915
  2304 0000:392F  2311 0000:395F  2313 0000:3969  2314 0000:3984
  2315 0000:3993  2316 0000:39AA  2317 0000:39B4  2319 0000:39BD
  2320 0000:39D8  2323 0000:39E0  2324 0000:39FB  2325 0000:3A16
  2326 0000:3A25  2327 0000:3A55  2328 0000:3A85  2329 0000:3AC1
  2330 0000:3ADC  2332 0000:3AE7  2334 0000:3B27  2336 0000:3B2E
  2337 0000:3B3D  2338 0000:3B68  2339 0000:3B93  2340 0000:3BBA
  2341 0000:3BC9  2349 0000:3BD8  2350 0000:3BF3  2351 0000:3C0F
  2354 0000:3C2E  2356 0000:3C49  2357 0000:3C7C  2358 0000:3C98
  2360 0000:3CA2  2362 0000:3CB0  2364 0000:3CC3  2366 0000:3CCA
  2370 0000:3CF1  2372 0000:3D0B  2376 0000:3D32  2378 0000:3D34
  2380 0000:3D39  2389 0000:3D54  2390 0000:3D6F  2391 0000:3D8B
  2393 0000:3DA4  2395 0000:3DA9  2397 0000:3DC4  2399 0000:3DC7
  2401 0000:3DE2  2402 0000:3DFD  2404 0000:3E04  2405 0000:3E09
  2406 0000:3E24  2409 0000:3E27  2411 0000:3E42  2412 0000:3E61
  2414 0000:3E7B  2424 0000:3EAB  2428 0000:3EC6  2432 0000:3EDF
  2433 0000:3EEA  2435 0000:3EFE  2436 0000:3F0A  2437 0000:3F16
  2439 0000:3F22  2440 0000:3F24  2441 0000:3F28  2444 0000:3F2B
  2445 0000:3F3C  2446 0000:3F4B  2447 0000:3F5A  2453 0000:3F61
  2455 0000:3F7A  2456 0000:3F8C  2461 0000:3FBC  2463 0000:3FC6
  2465 0000:3FE1  2466 0000:3FEC  2467 0000:3FF5  2475 0000:3FFE
  2476 0000:4009  2477 0000:4012  2487 0000:401B  2491 0000:4036
  2495 0000:404F  2499 0000:4059  2503 0000:4078  2504 0000:4083
  2506 0000:4091  2507 0000:409F  2508 0000:40AE  2510 0000:40BD
  2511 0000:40BF  2512 0000:40C3  2515 0000:40C6  2517 0000:40E9
  2518 0000:4101  2519 0000:4119  2520 0000:4131  2529 0000:4146
  2531 0000:415F  2532 0000:4171  2540 0000:41A1  2544 0000:41BC
  2548 0000:41D5  2551 0000:41DF  2552 0000:41FF  2553 0000:420A
  2555 0000:4218  2556 0000:4226  2557 0000:4235  2559 0000:4244
  2560 0000:4246  2561 0000:424A  2564 0000:424D  2566 0000:4273
  2567 0000:428B  2568 0000:42A3  2569 0000:42BB  2578 0000:42D0
  2580 0000:42E9  2581 0000:42FB  2587 0000:432B  2588 0000:4330
  2591 0000:4336  2592 0000:4338  2593 0000:433C  2594 0000:433E
  2599 0000:4341  2602 0000:435C  2604 0000:436A  2606 0000:4383
  2607 0000:4394  2613 0000:43A5  2620 0000:43AF  2621 0000:43BB
  2622 0000:43C7  2637 0000:43D3  2638 0000:43D7  2639 0000:43DA
  2640 0000:43DC  2641 0000:43DF  2644 0000:43E2  2645 0000:43E6
  2647 0000:43E8  2648 0000:43EA  2649 0000:43EB  2650 0000:43ED
  2651 0000:43EF  2652 0000:43F1  2653 0000:43F5  2654 0000:43F7
  2655 0000:43FA  2656 0000:43FB  2659 0000:43FD  2787 0000:4401
  2788 0000:4402  2789 0000:4404  2790 0000:4406  2791 0000:4409
  2792 0000:440C  2794 0000:440E  2795 0000:4411  2817 0000:4414
  2819 0000:4416  2823 0000:4417  2833 0000:441A  2834 0000:441E
  2835 0000:4422  2836 0000:4424  2837 0000:4426  2840 0000:4428
  2841 0000:442A  2842 0000:442C  2844 0000:442E  2848 0000:442F
  2850 0000:4432  2854 0000:4433  2855 0000:4434  2856 0000:4435
  2859 0000:4437  2869 0000:4438  2870 0000:443B  2875 0000:443F
  2876 0000:4441  2881 0000:4446  2884 0000:4450  2886 0000:4469
  2887 0000:4473  2888 0000:448E  2889 0000:44D9  2890 0000:44EB
  2891 0000:44F0  2892 0000:4509  2894 0000:4522  2895 0000:4556
  2896 0000:4591  2897 0000:45A9  2898 0000:45DF  2900 0000:4606
  2903 0000:4611  2904 0000:4641  2905 0000:4653  2907 0000:4683
  2908 0000:4695  2909 0000:46A2  2910 0000:46BD  2912 0000:46C4
  2913 0000:46D6  2914 0000:46EE  2915 0000:46F0  2917 0000:470C
  2920 0000:4727  2922 0000:472C  2924 0000:4733  2925 0000:4749
  2927 0000:4752  2929 0000:476D  2930 0000:477C  2936 0000:4781
  2938 0000:478B  2939 0000:47A6  2940 0000:47B8  2942 0000:47D1
  2943 0000:47DF  2945 0000:4817  2946 0000:482C  2947 0000:485F
  2949 0000:4886  2951 0000:4891  2952 0000:48C1  2953 0000:48DC
  2954 0000:48F2  2958 0000:4957  2959 0000:4966  2970 0000:4981
  2971 0000:498D  2972 0000:4999  2973 0000:49A5  2985 0000:4A53
  2987 0000:4A6C  2989 0000:4A7A  2990 0000:4A7C  2991 0000:4A80
  2993 0000:4A83  3007 0000:4B4B  3009 0000:4B56  3010 0000:4B65
  3011 0000:4B76  3013 0000:4B81  3015 0000:4B8F  3016 0000:4B92
  3017 0000:4B94  3018 0000:4B97  3019 0000:4B98  3020 0000:4B9A
  3021 0000:4B9E  3022 0000:4BA2  3023 0000:4BA4  3024 0000:4BA6
  3025 0000:4BA8  3026 0000:4BAA  3027 0000:4BAC  3028 0000:4BAE
  3030 0000:4BB1  3045 0000:4C79  3047 0000:4C83  3048 0000:4C92
  3049 0000:4CAD  3051 0000:4CB8  3053 0000:4CF8  3055 0000:4CFF
  3056 0000:4D0E  3063 0000:4D1D  3065 0000:4D36  3071 0000:4D47
  3072 0000:4D4A  3074 0000:4D4C  3075 0000:4D50  3076 0000:4D55
  3077 0000:4D57  3080 0000:4D5C  3081 0000:4D5E  3082 0000:4D60
  3083 0000:4D62  3084 0000:4D64  3090 0000:4D66  3092 0000:4D70
  3094 0000:4D75  3096 0000:4D8E  3097 0000:4D93  3098 0000:4DDE
  3099 0000:4DF0  3100 0000:4E09  3102 0000:4E22  3103 0000:4E5D
  3104 0000:4E75  3105 0000:4EAB  3107 0000:4ED2  3110 0000:4EDD
  3111 0000:4F0D  3112 0000:4F1F  3114 0000:4F4F  3115 0000:4F61
  3116 0000:4F6E  3117 0000:4F89  3118 0000:4FA5  3121 0000:4FBE
  3122 0000:4FC3  3126 0000:4FC8  3128 0000:4FE1  3150 0000:4FF2
  3151 0000:4FF7  3154 0000:4FF9  3155 0000:4FFC  3156 0000:4FFE
  3157 0000:5002  3158 0000:5004  3159 0000:5006  3174 0000:500A
  3175 0000:500C  3178 0000:500E  3180 0000:5011  3183 0000:5013
  3184 0000:5015  3186 0000:5018  3187 0000:501A  3189 0000:501C
  3190 0000:501E  3191 0000:5020  3192 0000:5024  3193 0000:5026
  3196 0000:5028  3197 0000:502A  3199 0000:502C  3202 0000:502E
  3203 0000:502F  3204 0000:5033  3206 0000:5035  3207 0000:5039
  3210 0000:503B  3211 0000:503E  3212 0000:5040  3213 0000:5044
  3214 0000:5046  3215 0000:5048  3228 0000:504C  3235 0000:504E
  3240 0000:5061  3244 0000:507A  3246 0000:5081  3247 0000:5090
  3248 0000:50BA  3253 0000:50E4  3254 0000:50F6  3256 0000:5126
  3257 0000:5138  3258 0000:5145  3261 0000:5175  3263 0000:517F
  3264 0000:519E  3265 0000:51A7  3267 0000:51B3  3269 0000:51EB
  3270 0000:51FA  3271 0000:5209  3276 0000:5239  3277 0000:524B
  3280 0000:527B  3282 0000:5282  3290 0000:52B2  3291 0000:52C0
  3292 0000:52D4  3294 0000:52E6  3296 0000:52F6  3297 0000:52FC
  3298 0000:5312  3299 0000:532B  3300 0000:5344  3301 0000:5352
  3308 0000:536B  3309 0000:53A5  3310 0000:53F0  3311 0000:5402
  3312 0000:541B  3314 0000:5434  3315 0000:546F  3316 0000:5487
  3317 0000:54BD  3319 0000:54E4  3322 0000:54EF  3325 0000:551F
  3326 0000:553A  3328 0000:5541  3329 0000:5553  3330 0000:556B
  3332 0000:556D  3335 0000:5589  3337 0000:55A8  3339 0000:55C3
  3341 0000:55CA  3342 0000:55DB  3343 0000:55F6  3345 0000:55F8
  3348 0000:5613  3349 0000:5632  3351 0000:564C  3353 0000:567C
  3354 0000:5697  3355 0000:56A6  3356 0000:56B2  3358 0000:56BB
  3359 0000:56D6  3362 0000:56DE  3363 0000:56F1  3364 0000:5709
  3366 0000:5712  3367 0000:572D  3370 0000:5735  3376 0000:5744
  3377 0000:574B  3382 0000:575A  3384 0000:5761  3386 0000:577C
  3394 0000:5783  3407 0000:578A  3409 0000:5794  3410 0000:57AF
  3412 0000:57B6  3413 0000:57D1  3414 0000:57E0  3415 0000:57EA
  3417 0000:57F3  3418 0000:580E  3420 0000:5816  3422 0000:5818
  3423 0000:5833  3426 0000:583B  3427 0000:5856  3429 0000:585B
  3430 0000:586A  3432 0000:587C  3434 0000:5882  3435 0000:5885
  3436 0000:5887  3437 0000:5889  3439 0000:588C  3440 0000:588F
  3441 0000:5893  3442 0000:5895  3446 0000:5897  3447 0000:589C
  3448 0000:58A3  3451 0000:58C9  3454 0000:58E9  3455 0000:5905
  3461 0000:5954  3462 0000:5959  3463 0000:5968  3464 0000:596D
  3465 0000:5975  3467 0000:597C  3468 0000:598D  3471 0000:5992
  3472 0000:5998  3474 0000:599F  3475 0000:59A4  3478 0000:59A9
  3482 0000:59AC  3484 0000:59BB  3485 0000:59BE  3486 0000:59C2
  3487 0000:59C4  3491 0000:59C6  3493 0000:59D5  3495 0000:59DF
  3496 0000:59FA  3497 0000:59FF  3498 0000:5A11  3500 0000:5A2A
  3501 0000:5A38  3504 0000:5A71  3505 0000:5A86  3507 0000:5A8B
  3508 0000:5ABC  3510 0000:5AC7  3511 0000:5AF8  3513 0000:5B13
  3515 0000:5B1A  3516 0000:5B29  3517 0000:5B38  3518 0000:5B53
  3523 0000:5B83  3525 0000:5B86  3527 0000:5B8D  3529 0000:5B96
  3530 0000:5BB1  3531 0000:5BCC  3533 0000:5BCE  3535 0000:5BE9
  3537 0000:5BEB  3547 0000:5C14  3549 0000:5C1B  3556 0000:5C2A
  3558 0000:5C34  3559 0000:5C4F  3560 0000:5C5E  3561 0000:5C75
  3562 0000:5C7F  3564 0000:5C88  3565 0000:5CA3  3568 0000:5CAB
  3570 0000:5CB2  3571 0000:5CCD  3572 0000:5CDC  3573 0000:5CE6
  3575 0000:5CEF  3576 0000:5D0A  3578 0000:5D12  3580 0000:5D14
  3581 0000:5D2F  3584 0000:5D37  3585 0000:5D52  3586 0000:5D6D
  3587 0000:5D88  3589 0000:5DA3  3590 0000:5DBE  3591 0000:5DD9
  3592 0000:5DF4  3594 0000:5E0A  3595 0000:5E26  3604 0000:5E9C
  3605 0000:5EB7  3607 0000:5EBA  3608 0000:5ED5  3609 0000:5EF0
  3610 0000:5F0B  3611 0000:5F26  3612 0000:5F41  3613 0000:5F5C
  3614 0000:5F77  3615 0000:5F92  3622 0000:5FA1  3625 0000:5FBC

Program entry point at 0000:252A
